; ModuleID = 'bench/linux/original/io.ll'
source_filename = "bench/linux/original/io.ll"
target datalayout = "e-m:e-p270:32:32-p271:32:32-p272:64:64-i64:64-i128:128-f80:128-n8:16:32:64-S128"
target triple = "x86_64-unknown-linux-gnu"

; Function Attrs: fn_ret_thunk_extern nounwind null_pointer_is_valid
define dso_local void @nfs_start_io_read(ptr noundef %0) local_unnamed_addr #0 align 16 {
  %2 = getelementptr inbounds i8, ptr %0, i64 160
  tail call void @down_read(ptr noundef %2) #2
  %3 = getelementptr i8, ptr %0, i64 -288
  %4 = load volatile i64, ptr %3, align 8
  %5 = and i64 %4, 4096
  %6 = icmp eq i64 %5, 0
  br i1 %6, label %14, label %7

7:                                                ; preds = %1
  tail call void @up_read(ptr noundef %2) #2
  tail call void @down_write(ptr noundef %2) #2
  %8 = load volatile i64, ptr %3, align 8
  %9 = and i64 %8, 4096
  %10 = icmp eq i64 %9, 0
  br i1 %10, label %13, label %11

11:                                               ; preds = %7
  %12 = getelementptr i8, ptr %0, i64 -287
  tail call void asm sideeffect ".pushsection .smp_locks,\22a\22\0A.balign 4\0A.long 671f - .\0A.popsection\0A671:\0A\09lock; andb ${1:b},$0", "=*m,iq,*m,~{dirflag},~{fpsr},~{flags}"(ptr elementtype(i8) %12, i32 -17, ptr elementtype(i8) %12) #2, !srcloc !5
  tail call void @inode_dio_wait(ptr noundef %0) #2
  br label %13

13:                                               ; preds = %11, %7
  tail call void @downgrade_write(ptr noundef %2) #2
  br label %14

14:                                               ; preds = %13, %1
  ret void
}

; Function Attrs: null_pointer_is_valid
declare dso_local void @down_read(ptr noundef) local_unnamed_addr #1

; Function Attrs: null_pointer_is_valid
declare dso_local void @up_read(ptr noundef) local_unnamed_addr #1

; Function Attrs: null_pointer_is_valid
declare dso_local void @down_write(ptr noundef) local_unnamed_addr #1

; Function Attrs: null_pointer_is_valid
declare dso_local void @downgrade_write(ptr noundef) local_unnamed_addr #1

; Function Attrs: fn_ret_thunk_extern nounwind null_pointer_is_valid
define dso_local void @nfs_end_io_read(ptr noundef %0) local_unnamed_addr #0 align 16 {
  %2 = getelementptr inbounds i8, ptr %0, i64 160
  tail call void @up_read(ptr noundef %2) #2
  ret void
}

; Function Attrs: fn_ret_thunk_extern nounwind null_pointer_is_valid
define dso_local void @nfs_start_io_write(ptr noundef %0) local_unnamed_addr #0 align 16 {
  %2 = getelementptr inbounds i8, ptr %0, i64 160
  tail call void @down_write(ptr noundef %2) #2
  %3 = getelementptr i8, ptr %0, i64 -288
  %4 = load volatile i64, ptr %3, align 8
  %5 = and i64 %4, 4096
  %6 = icmp eq i64 %5, 0
  br i1 %6, label %9, label %7

7:                                                ; preds = %1
  %8 = getelementptr i8, ptr %0, i64 -287
  tail call void asm sideeffect ".pushsection .smp_locks,\22a\22\0A.balign 4\0A.long 671f - .\0A.popsection\0A671:\0A\09lock; andb ${1:b},$0", "=*m,iq,*m,~{dirflag},~{fpsr},~{flags}"(ptr elementtype(i8) %8, i32 -17, ptr elementtype(i8) %8) #2, !srcloc !5
  tail call void @inode_dio_wait(ptr noundef %0) #2
  br label %9

9:                                                ; preds = %7, %1
  ret void
}

; Function Attrs: fn_ret_thunk_extern nounwind null_pointer_is_valid
define dso_local void @nfs_end_io_write(ptr noundef %0) local_unnamed_addr #0 align 16 {
  %2 = getelementptr inbounds i8, ptr %0, i64 160
  tail call void @up_write(ptr noundef %2) #2
  ret void
}

; Function Attrs: null_pointer_is_valid
declare dso_local void @up_write(ptr noundef) local_unnamed_addr #1

; Function Attrs: fn_ret_thunk_extern nounwind null_pointer_is_valid
define dso_local void @nfs_start_io_direct(ptr noundef %0) local_unnamed_addr #0 align 16 {
  %2 = getelementptr inbounds i8, ptr %0, i64 160
  tail call void @down_read(ptr noundef %2) #2
  %3 = getelementptr i8, ptr %0, i64 -288
  %4 = load volatile i64, ptr %3, align 8
  %5 = and i64 %4, 4096
  %6 = icmp eq i64 %5, 0
  br i1 %6, label %7, label %17

7:                                                ; preds = %1
  tail call void @up_read(ptr noundef %2) #2
  tail call void @down_write(ptr noundef %2) #2
  %8 = load volatile i64, ptr %3, align 8
  %9 = and i64 %8, 4096
  %10 = icmp eq i64 %9, 0
  br i1 %10, label %11, label %16

11:                                               ; preds = %7
  %12 = getelementptr i8, ptr %0, i64 -287
  tail call void asm sideeffect ".pushsection .smp_locks,\22a\22\0A.balign 4\0A.long 671f - .\0A.popsection\0A671:\0A\09lock; orb ${1:b},$0", "=*m,iq,*m,~{memory},~{dirflag},~{fpsr},~{flags}"(ptr elementtype(i8) %12, i32 16, ptr elementtype(i8) %12) #2, !srcloc !6
  %13 = getelementptr inbounds i8, ptr %0, i64 48
  %14 = load ptr, ptr %13, align 8
  %15 = tail call i32 @nfs_sync_mapping(ptr noundef %14) #2
  br label %16

16:                                               ; preds = %11, %7
  tail call void @downgrade_write(ptr noundef %2) #2
  br label %17

17:                                               ; preds = %16, %1
  ret void
}

; Function Attrs: fn_ret_thunk_extern nounwind null_pointer_is_valid
define dso_local void @nfs_end_io_direct(ptr noundef %0) local_unnamed_addr #0 align 16 {
  %2 = getelementptr inbounds i8, ptr %0, i64 160
  tail call void @up_read(ptr noundef %2) #2
  ret void
}

; Function Attrs: null_pointer_is_valid
declare dso_local void @inode_dio_wait(ptr noundef) local_unnamed_addr #1

; Function Attrs: null_pointer_is_valid
declare dso_local i32 @nfs_sync_mapping(ptr noundef) local_unnamed_addr #1


!llvm.module.flags = !{!0, !1, !2, !3, !4}

!0 = !{i32 1, !"wchar_size", i32 2}
!1 = !{i32 8, !"cf-protection-branch", i32 1}
!2 = !{i32 4, !"function_return_thunk_extern", i32 1}
!3 = !{i32 4, !"indirect_branch_cs_prefix", i32 1}
!4 = !{i32 4, !"SkipRaxSetup", i32 1}
!5 = !{i64 2147788604, i64 2147788643, i64 2147788664, i64 2147788701, i64 2147788724, i64 2147788594}
!6 = !{i64 2147787316, i64 2147787355, i64 2147787376, i64 2147787413, i64 2147787436, i64 2147787306}
